target datalayout = "e-m:e-p270:32:32-p271:32:32-p272:64:64-i64:64-i128:128-f80:128-n8:16:32:64-S128"
target triple = "x86_64-pc-linux-gnu"

%"class.zmq::mechanism_t" = type { ptr, %"struct.zmq::options_t", %"class.std::map", %"class.std::map", %"struct.zmq::blob_t", %"struct.zmq::blob_t" }
%"struct.zmq::options_t" = type { i32, i32, i64, i8, [256 x i8], i32, i32, i32, i32, i32, i32, i32, i32, i8, %"struct.zmq::atomic_value_t", i32, i32, i32, i32, i32, i32, i64, i32, i32, i8, i32, i8, i8, i8, i8, i8, %"class.std::__cxx11::basic_string", %"class.std::__cxx11::basic_string", %"class.std::__cxx11::basic_string", i32, i32, i32, i32, %"class.std::vector", %"class.std::set", %"class.std::set", %"class.std::set.6", i32, i32, %"class.std::__cxx11::basic_string", %"class.std::__cxx11::basic_string", %"class.std::__cxx11::basic_string", [32 x i8], [32 x i8], [32 x i8], %"class.std::__cxx11::basic_string", %"class.std::__cxx11::basic_string", i32, i32, i8, i32, i8, i32, i8, i16, i32, i32, i32, %"class.std::__cxx11::basic_string", i8, i8, i8, i32, i32, i8, i32, %"class.std::map", i32, %"class.std::__cxx11::basic_string", %"class.std::__cxx11::basic_string", %"class.std::__cxx11::basic_string", %"class.std::__cxx11::basic_string", i8, %"class.std::vector.17", i8, %"class.std::vector.17", i8, %"class.std::vector.17", i8, i32, i8, i32, i32, i32, i32, i32, i8, i32 }
%"struct.zmq::atomic_value_t" = type { %"struct.std::atomic" }
%"struct.std::atomic" = type { %"struct.std::__atomic_base" }
%"struct.std::__atomic_base" = type { i32 }
%"class.std::vector" = type { %"struct.std::_Vector_base" }
%"struct.std::_Vector_base" = type { %"struct.std::_Vector_base<zmq::tcp_address_mask_t, std::allocator<zmq::tcp_address_mask_t>>::_Vector_impl" }
%"struct.std::_Vector_base<zmq::tcp_address_mask_t, std::allocator<zmq::tcp_address_mask_t>>::_Vector_impl" = type { %"struct.std::_Vector_base<zmq::tcp_address_mask_t, std::allocator<zmq::tcp_address_mask_t>>::_Vector_impl_data" }
%"struct.std::_Vector_base<zmq::tcp_address_mask_t, std::allocator<zmq::tcp_address_mask_t>>::_Vector_impl_data" = type { ptr, ptr, ptr }
%"class.std::set" = type { %"class.std::_Rb_tree" }
%"class.std::_Rb_tree" = type { %"struct.std::_Rb_tree<unsigned int, unsigned int, std::_Identity<unsigned int>, std::less<unsigned int>>::_Rb_tree_impl" }
%"struct.std::_Rb_tree<unsigned int, unsigned int, std::_Identity<unsigned int>, std::less<unsigned int>>::_Rb_tree_impl" = type { [8 x i8], %"struct.std::_Rb_tree_header" }
%"struct.std::_Rb_tree_header" = type { %"struct.std::_Rb_tree_node_base", i64 }
%"struct.std::_Rb_tree_node_base" = type { i32, ptr, ptr, ptr }
%"class.std::set.6" = type { %"class.std::_Rb_tree.7" }
%"class.std::_Rb_tree.7" = type { %"struct.std::_Rb_tree<int, int, std::_Identity<int>, std::less<int>>::_Rb_tree_impl" }
%"struct.std::_Rb_tree<int, int, std::_Identity<int>, std::less<int>>::_Rb_tree_impl" = type { [8 x i8], %"struct.std::_Rb_tree_header" }
%"class.std::__cxx11::basic_string" = type { %"struct.std::__cxx11::basic_string<char>::_Alloc_hider", i64, %union.anon }
%"struct.std::__cxx11::basic_string<char>::_Alloc_hider" = type { ptr }
%union.anon = type { i64, [8 x i8] }
%"class.std::vector.17" = type { %"struct.std::_Vector_base.18" }
%"struct.std::_Vector_base.18" = type { %"struct.std::_Vector_base<unsigned char, std::allocator<unsigned char>>::_Vector_impl" }
%"struct.std::_Vector_base<unsigned char, std::allocator<unsigned char>>::_Vector_impl" = type { %"struct.std::_Vector_base<unsigned char, std::allocator<unsigned char>>::_Vector_impl_data" }
%"struct.std::_Vector_base<unsigned char, std::allocator<unsigned char>>::_Vector_impl_data" = type { ptr, ptr, ptr }
%"class.std::map" = type { %"class.std::_Rb_tree.12" }
%"class.std::_Rb_tree.12" = type { %"struct.std::_Rb_tree<std::__cxx11::basic_string<char>, std::pair<const std::__cxx11::basic_string<char>, std::__cxx11::basic_string<char>>, std::_Select1st<std::pair<const std::__cxx11::basic_string<char>, std::__cxx11::basic_string<char>>>, std::less<std::__cxx11::basic_string<char>>>::_Rb_tree_impl" }
%"struct.std::_Rb_tree<std::__cxx11::basic_string<char>, std::pair<const std::__cxx11::basic_string<char>, std::__cxx11::basic_string<char>>, std::_Select1st<std::pair<const std::__cxx11::basic_string<char>, std::__cxx11::basic_string<char>>>, std::less<std::__cxx11::basic_string<char>>>::_Rb_tree_impl" = type { [8 x i8], %"struct.std::_Rb_tree_header" }
%"struct.zmq::blob_t" = type <{ ptr, i64, i8, [7 x i8] }>

@stderr = external global ptr, align 8
@.str = private unnamed_addr constant [12 x i8] c"%s (%s:%d)\0A\00", align 1
@.str.1 = private unnamed_addr constant [109 x i8] c"generated/home/dtcxzyw/WorkSpace/Projects/compilers/llvm-opt-benchmark/bench/libzmq/libzmq/src/mechanism.cpp\00", align 1

; Function Attrs: mustprogress nounwind uwtable
define linkonce_odr noundef ptr @_ZN3zmq6blob_t4dataEv(ptr noundef nonnull align 8 dereferenceable(17) %0) #2 comdat align 2 {
  %2 = alloca ptr, align 8
  store ptr %0, ptr %2, align 8, !tbaa !59
  %3 = load ptr, ptr %2, align 8
  %4 = getelementptr inbounds nuw %"struct.zmq::blob_t", ptr %3, i32 0, i32 0
  %5 = load ptr, ptr %4, align 8, !tbaa !61
  ret ptr %5
}

; Function Attrs: mustprogress nounwind uwtable
define linkonce_odr noundef i64 @_ZNK3zmq6blob_t4sizeEv(ptr noundef nonnull align 8 dereferenceable(17) %0) #2 comdat align 2 {
  %2 = alloca ptr, align 8
  store ptr %0, ptr %2, align 8, !tbaa !59
  %3 = load ptr, ptr %2, align 8
  %4 = getelementptr inbounds nuw %"struct.zmq::blob_t", ptr %3, i32 0, i32 1
  %5 = load i64, ptr %4, align 8, !tbaa !63
  ret i64 %5
}

; Function Attrs: mustprogress uwtable
define void @_ZN3zmq11mechanism_t15peer_routing_idEPNS_5msg_tE(ptr noundef nonnull align 8 dereferenceable(1488) %0, ptr noundef %1) #0 align 2 {
  %3 = alloca ptr, align 8
  %4 = alloca ptr, align 8
  %5 = alloca i32, align 4
  %6 = alloca ptr, align 8
  store ptr %0, ptr %3, align 8, !tbaa !3
  store ptr %1, ptr %4, align 8, !tbaa !70
  %7 = load ptr, ptr %3, align 8
  call void @llvm.lifetime.start.p0(i64 4, ptr %5) #18
  %8 = load ptr, ptr %4, align 8, !tbaa !70
  %9 = getelementptr inbounds nuw %"class.zmq::mechanism_t", ptr %7, i32 0, i32 4
  %10 = call noundef i64 @_ZNK3zmq6blob_t4sizeEv(ptr noundef nonnull align 8 dereferenceable(17) %9)
  %11 = call noundef i32 @_ZN3zmq5msg_t9init_sizeEm(ptr noundef nonnull align 8 dereferenceable(64) %8, i64 noundef %10)
  store i32 %11, ptr %5, align 4, !tbaa !72
  br label %12

12:                                               ; preds = %2
  %13 = load i32, ptr %5, align 4, !tbaa !72
  %14 = icmp eq i32 %13, 0
  %15 = xor i1 %14, true
  %16 = zext i1 %15 to i64
  %17 = call i64 @llvm.expect.i64(i64 %16, i64 0)
  %18 = icmp ne i64 %17, 0
  br i1 %18, label %19, label %29

19:                                               ; preds = %12
  call void @llvm.lifetime.start.p0(i64 8, ptr %6) #18
  %20 = call ptr @__errno_location() #21
  %21 = load i32, ptr %20, align 4, !tbaa !72
  %22 = call ptr @strerror(i32 noundef %21) #18
  store ptr %22, ptr %6, align 8, !tbaa !67
  %23 = load ptr, ptr @stderr, align 8, !tbaa !68
  %24 = load ptr, ptr %6, align 8, !tbaa !67
  %25 = call i32 (ptr, ptr, ...) @fprintf(ptr noundef %23, ptr noundef @.str, ptr noundef %24, ptr noundef @.str.1, i32 noundef 31) #18
  %26 = load ptr, ptr @stderr, align 8, !tbaa !68
  %27 = call i32 @fflush(ptr noundef %26)
  %28 = load ptr, ptr %6, align 8, !tbaa !67
  call void @_ZN3zmq9zmq_abortEPKc(ptr noundef %28)
  call void @llvm.lifetime.end.p0(i64 8, ptr %6) #18
  br label %29

29:                                               ; preds = %19, %12
  br label %30

30:                                               ; preds = %29
  br label %31

31:                                               ; preds = %30
  %32 = load ptr, ptr %4, align 8, !tbaa !70
  %33 = call noundef ptr @_ZN3zmq5msg_t4dataEv(ptr noundef nonnull align 8 dereferenceable(64) %32)
  %34 = getelementptr inbounds nuw %"class.zmq::mechanism_t", ptr %7, i32 0, i32 4
  %35 = call noundef ptr @_ZN3zmq6blob_t4dataEv(ptr noundef nonnull align 8 dereferenceable(17) %34)
  %36 = getelementptr inbounds nuw %"class.zmq::mechanism_t", ptr %7, i32 0, i32 4
  %37 = call noundef i64 @_ZNK3zmq6blob_t4sizeEv(ptr noundef nonnull align 8 dereferenceable(17) %36)
  call void @llvm.memcpy.p0.p0.i64(ptr align 1 %33, ptr align 1 %35, i64 %37, i1 false)
  %38 = load ptr, ptr %4, align 8, !tbaa !70
  call void @_ZN3zmq5msg_t9set_flagsEh(ptr noundef nonnull align 8 dereferenceable(64) %38, i8 noundef zeroext 64)
  call void @llvm.lifetime.end.p0(i64 4, ptr %5) #18
  ret void
}