; Function Attrs: mustprogress uwtable
define void @_ZN3zmq11mechanism_t15peer_routing_idEPNS_5msg_tE(ptr noundef nonnull readonly align 8 captures(none) dereferenceable(1488) %0, ptr noundef nonnull %1) local_unnamed_addr #0 align 2 {
  %3 = getelementptr inbounds nuw i8, ptr %0, i64 1448
  %4 = load i64, ptr %3, align 8, !tbaa !93
  %5 = tail call noundef i32 @_ZN3zmq5msg_t9init_sizeEm(ptr noundef nonnull align 8 dereferenceable(64) %1, i64 noundef %4)
  %.not = icmp eq i32 %5, 0
  br i1 %.not, label %14, label %6, !prof !94

6:                                                ; preds = %2
  %7 = tail call ptr @__errno_location() #34
  %8 = load i32, ptr %7, align 4, !tbaa !40
  %9 = tail call ptr @strerror(i32 noundef %8) #27
  %10 = load ptr, ptr @stderr, align 8, !tbaa !91
  %11 = tail call i32 (ptr, ptr, ...) @fprintf(ptr noundef %10, ptr noundef nonnull @.str, ptr noundef %9, ptr noundef nonnull @.str.1, i32 noundef 31) #33
  %12 = load ptr, ptr @stderr, align 8, !tbaa !91
  %13 = tail call i32 @fflush(ptr noundef %12)
  tail call void @_ZN3zmq9zmq_abortEPKc(ptr noundef %9)
  br label %14

14:                                               ; preds = %6, %2
  %15 = getelementptr inbounds nuw i8, ptr %0, i64 1440
  %16 = tail call noundef ptr @_ZN3zmq5msg_t4dataEv(ptr noundef nonnull align 8 dereferenceable(64) %1)
  %17 = load ptr, ptr %15, align 8, !tbaa !90
  %18 = load i64, ptr %3, align 8, !tbaa !93
  tail call void @llvm.memcpy.p0.p0.i64(ptr align 1 %16, ptr align 1 %17, i64 %18, i1 false)
  tail call void @_ZN3zmq5msg_t9set_flagsEh(ptr noundef nonnull align 8 dereferenceable(64) %1, i8 noundef zeroext 64)
  ret void
}